; Function Attrs: mustprogress uwtable
define void @_ZN6casadi6MatrixIdE10_logsumexpERKS1_(ptr dead_on_unwind noalias writable sret(%"class.casadi::Matrix") align 8 %0, ptr noundef nonnull align 8 dereferenceable(40) %1) local_unnamed_addr #4 align 2 {
  %3 = getelementptr inbounds nuw i8, ptr %1, i64 16
  %4 = load ptr, ptr %3, align 8, !tbaa !17
  %5 = getelementptr inbounds nuw i8, ptr %1, i64 24
  %6 = load ptr, ptr %5, align 8, !tbaa !17
  %7 = icmp eq ptr %4, %6
  %spec.select.i = select i1 %7, ptr null, ptr %4
  %8 = getelementptr inbounds nuw i8, ptr %1, i64 8
  %9 = tail call noundef i64 @_ZNK6casadi8Sparsity5numelEv(ptr noundef nonnull align 8 dereferenceable(8) %8)
  %10 = icmp eq i64 %9, 1
  %11 = load double, ptr %spec.select.i, align 8, !tbaa !3
  br i1 %10, label %_ZN6casadi16casadi_logsumexpIdEET_PKS1_x.exit, label %12

12:                                               ; preds = %2
  %13 = icmp sgt i64 %9, 1
  br i1 %13, label %.lr.ph.i, label %._crit_edge.i

.lr.ph.i:                                         ; preds = %12, %.lr.ph.i
  %.02334.i = phi double [ %.124.i, %.lr.ph.i ], [ %11, %12 ]
  %.02533.i = phi i64 [ %.126.i, %.lr.ph.i ], [ 0, %12 ]
  %.02732.i = phi i64 [ %17, %.lr.ph.i ], [ 1, %12 ]
  %14 = getelementptr inbounds nuw double, ptr %spec.select.i, i64 %.02732.i
  %15 = load double, ptr %14, align 8, !tbaa !3
  %16 = fcmp ogt double %15, %11
  %.126.i = select i1 %16, i64 %.02732.i, i64 %.02533.i
  %.124.i = select i1 %16, double %15, double %.02334.i
  %17 = add nuw nsw i64 %.02732.i, 1
  %exitcond.not.i = icmp eq i64 %17, %9
  br i1 %exitcond.not.i, label %.lr.ph38.i, label %.lr.ph.i, !llvm.loop !1708

.lr.ph38.i:                                       ; preds = %.lr.ph.i, %24
  %.037.i = phi double [ %.1.i, %24 ], [ 0.000000e+00, %.lr.ph.i ]
  %.12836.i = phi i64 [ %25, %24 ], [ 0, %.lr.ph.i ]
  %.not.i = icmp eq i64 %.12836.i, %.126.i
  br i1 %.not.i, label %24, label %18

18:                                               ; preds = %.lr.ph38.i
  %19 = getelementptr inbounds nuw double, ptr %spec.select.i, i64 %.12836.i
  %20 = load double, ptr %19, align 8, !tbaa !3
  %21 = fsub double %20, %.124.i
  %22 = tail call double @exp(double noundef %21) #31, !tbaa !233
  %23 = fadd double %.037.i, %22
  br label %24

24:                                               ; preds = %18, %.lr.ph38.i
  %.1.i = phi double [ %23, %18 ], [ %.037.i, %.lr.ph38.i ]
  %25 = add nuw nsw i64 %.12836.i, 1
  %exitcond40.not.i = icmp eq i64 %25, %9
  br i1 %exitcond40.not.i, label %._crit_edge.i, label %.lr.ph38.i, !llvm.loop !1709

._crit_edge.i:                                    ; preds = %24, %12
  %.023.lcssa43.i = phi double [ %11, %12 ], [ %.124.i, %24 ]
  %.0.lcssa.i = phi double [ 0.000000e+00, %12 ], [ %.1.i, %24 ]
  %26 = tail call double @log1p(double noundef %.0.lcssa.i) #31, !tbaa !233
  %27 = fadd double %.023.lcssa43.i, %26
  br label %_ZN6casadi16casadi_logsumexpIdEET_PKS1_x.exit

_ZN6casadi16casadi_logsumexpIdEET_PKS1_x.exit:    ; preds = %2, %._crit_edge.i
  %.029.i = phi double [ %27, %._crit_edge.i ], [ %11, %2 ]
  tail call void @_ZN6casadi6MatrixIdEC1Ed(ptr noundef nonnull align 8 dereferenceable(40) %0, double noundef %.029.i)
  ret void
}